target datalayout = "e-m:e-p270:32:32-p271:32:32-p272:64:64-i64:64-i128:128-f80:128-n8:16:32:64-S128"
target triple = "x86_64-unknown-linux-gnu"

; Function Attrs: mustprogress nounwind uwtable
define hidden void @_Z18bcdec__color_blockPKvPvii(ptr noundef %compressedBlock, ptr noundef %decompressedBlock, i32 noundef %destinationPitch, i32 noundef %onlyOpaqueMode) #4 {
entry:
  %compressedBlock.addr = alloca ptr, align 8
  %decompressedBlock.addr = alloca ptr, align 8
  %destinationPitch.addr = alloca i32, align 4
  %onlyOpaqueMode.addr = alloca i32, align 4
  %c0 = alloca i16, align 2
  %c1 = alloca i16, align 2
  %refColors = alloca [4 x i32], align 16
  %dstColors = alloca ptr, align 8
  %colorIndices = alloca i32, align 4
  %i = alloca i32, align 4
  %j = alloca i32, align 4
  %idx = alloca i32, align 4
  %r0 = alloca i32, align 4
  %g0 = alloca i32, align 4
  %b0 = alloca i32, align 4
  %r1 = alloca i32, align 4
  %g1 = alloca i32, align 4
  %b1 = alloca i32, align 4
  %r = alloca i32, align 4
  %g = alloca i32, align 4
  %b = alloca i32, align 4
  store ptr %compressedBlock, ptr %compressedBlock.addr, align 8
  store ptr %decompressedBlock, ptr %decompressedBlock.addr, align 8
  store i32 %destinationPitch, ptr %destinationPitch.addr, align 4
  store i32 %onlyOpaqueMode, ptr %onlyOpaqueMode.addr, align 4
  %0 = load ptr, ptr %compressedBlock.addr, align 8
  %arrayidx = getelementptr inbounds i16, ptr %0, i64 0
  %1 = load i16, ptr %arrayidx, align 2
  store i16 %1, ptr %c0, align 2
  %2 = load ptr, ptr %compressedBlock.addr, align 8
  %arrayidx1 = getelementptr inbounds i16, ptr %2, i64 1
  %3 = load i16, ptr %arrayidx1, align 2
  store i16 %3, ptr %c1, align 2
  %4 = load i16, ptr %c0, align 2
  %conv = zext i16 %4 to i32
  %shr = ashr i32 %conv, 11
  %and = and i32 %shr, 31
  %mul = mul nsw i32 %and, 527
  %add = add nsw i32 %mul, 23
  %shr2 = ashr i32 %add, 6
  store i32 %shr2, ptr %r0, align 4
  %5 = load i16, ptr %c0, align 2
  %conv3 = zext i16 %5 to i32
  %shr4 = ashr i32 %conv3, 5
  %and5 = and i32 %shr4, 63
  %mul6 = mul nsw i32 %and5, 259
  %add7 = add nsw i32 %mul6, 33
  %shr8 = ashr i32 %add7, 6
  store i32 %shr8, ptr %g0, align 4
  %6 = load i16, ptr %c0, align 2
  %conv9 = zext i16 %6 to i32
  %and10 = and i32 %conv9, 31
  %mul11 = mul nsw i32 %and10, 527
  %add12 = add nsw i32 %mul11, 23
  %shr13 = ashr i32 %add12, 6
  store i32 %shr13, ptr %b0, align 4
  %7 = load i32, ptr %b0, align 4
  %shl = shl i32 %7, 16
  %or = or i32 -16777216, %shl
  %8 = load i32, ptr %g0, align 4
  %shl14 = shl i32 %8, 8
  %or15 = or i32 %or, %shl14
  %9 = load i32, ptr %r0, align 4
  %or16 = or i32 %or15, %9
  %arrayidx17 = getelementptr inbounds [4 x i32], ptr %refColors, i64 0, i64 0
  store i32 %or16, ptr %arrayidx17, align 16
  %10 = load i16, ptr %c1, align 2
  %conv18 = zext i16 %10 to i32
  %shr19 = ashr i32 %conv18, 11
  %and20 = and i32 %shr19, 31
  %mul21 = mul nsw i32 %and20, 527
  %add22 = add nsw i32 %mul21, 23
  %shr23 = ashr i32 %add22, 6
  store i32 %shr23, ptr %r1, align 4
  %11 = load i16, ptr %c1, align 2
  %conv24 = zext i16 %11 to i32
  %shr25 = ashr i32 %conv24, 5
  %and26 = and i32 %shr25, 63
  %mul27 = mul nsw i32 %and26, 259
  %add28 = add nsw i32 %mul27, 33
  %shr29 = ashr i32 %add28, 6
  store i32 %shr29, ptr %g1, align 4
  %12 = load i16, ptr %c1, align 2
  %conv30 = zext i16 %12 to i32
  %and31 = and i32 %conv30, 31
  %mul32 = mul nsw i32 %and31, 527
  %add33 = add nsw i32 %mul32, 23
  %shr34 = ashr i32 %add33, 6
  store i32 %shr34, ptr %b1, align 4
  %13 = load i32, ptr %b1, align 4
  %shl35 = shl i32 %13, 16
  %or36 = or i32 -16777216, %shl35
  %14 = load i32, ptr %g1, align 4
  %shl37 = shl i32 %14, 8
  %or38 = or i32 %or36, %shl37
  %15 = load i32, ptr %r1, align 4
  %or39 = or i32 %or38, %15
  %arrayidx40 = getelementptr inbounds [4 x i32], ptr %refColors, i64 0, i64 1
  store i32 %or39, ptr %arrayidx40, align 4
  %16 = load i16, ptr %c0, align 2
  %conv41 = zext i16 %16 to i32
  %17 = load i16, ptr %c1, align 2
  %conv42 = zext i16 %17 to i32
  %cmp = icmp sgt i32 %conv41, %conv42
  br i1 %cmp, label %if.then, label %lor.lhs.false

lor.lhs.false:                                    ; preds = %entry
  %18 = load i32, ptr %onlyOpaqueMode.addr, align 4
  %tobool = icmp ne i32 %18, 0
  br i1 %tobool, label %if.then, label %if.else

if.then:                                          ; preds = %lor.lhs.false, %entry
  %19 = load i32, ptr %r0, align 4
  %mul43 = mul i32 2, %19
  %20 = load i32, ptr %r1, align 4
  %add44 = add i32 %mul43, %20
  %add45 = add i32 %add44, 1
  %div = udiv i32 %add45, 3
  store i32 %div, ptr %r, align 4
  %21 = load i32, ptr %g0, align 4
  %mul46 = mul i32 2, %21
  %22 = load i32, ptr %g1, align 4
  %add47 = add i32 %mul46, %22
  %add48 = add i32 %add47, 1
  %div49 = udiv i32 %add48, 3
  store i32 %div49, ptr %g, align 4
  %23 = load i32, ptr %b0, align 4
  %mul50 = mul i32 2, %23
  %24 = load i32, ptr %b1, align 4
  %add51 = add i32 %mul50, %24
  %add52 = add i32 %add51, 1
  %div53 = udiv i32 %add52, 3
  store i32 %div53, ptr %b, align 4
  %25 = load i32, ptr %b, align 4
  %shl54 = shl i32 %25, 16
  %or55 = or i32 -16777216, %shl54
  %26 = load i32, ptr %g, align 4
  %shl56 = shl i32 %26, 8
  %or57 = or i32 %or55, %shl56
  %27 = load i32, ptr %r, align 4
  %or58 = or i32 %or57, %27
  %arrayidx59 = getelementptr inbounds [4 x i32], ptr %refColors, i64 0, i64 2
  store i32 %or58, ptr %arrayidx59, align 8
  %28 = load i32, ptr %r0, align 4
  %29 = load i32, ptr %r1, align 4
  %mul60 = mul i32 2, %29
  %add61 = add i32 %28, %mul60
  %add62 = add i32 %add61, 1
  %div63 = udiv i32 %add62, 3
  store i32 %div63, ptr %r, align 4
  %30 = load i32, ptr %g0, align 4
  %31 = load i32, ptr %g1, align 4
  %mul64 = mul i32 2, %31
  %add65 = add i32 %30, %mul64
  %add66 = add i32 %add65, 1
  %div67 = udiv i32 %add66, 3
  store i32 %div67, ptr %g, align 4
  %32 = load i32, ptr %b0, align 4
  %33 = load i32, ptr %b1, align 4
  %mul68 = mul i32 2, %33
  %add69 = add i32 %32, %mul68
  %add70 = add i32 %add69, 1
  %div71 = udiv i32 %add70, 3
  store i32 %div71, ptr %b, align 4
  %34 = load i32, ptr %b, align 4
  %shl72 = shl i32 %34, 16
  %or73 = or i32 -16777216, %shl72
  %35 = load i32, ptr %g, align 4
  %shl74 = shl i32 %35, 8
  %or75 = or i32 %or73, %shl74
  %36 = load i32, ptr %r, align 4
  %or76 = or i32 %or75, %36
  %arrayidx77 = getelementptr inbounds [4 x i32], ptr %refColors, i64 0, i64 3
  store i32 %or76, ptr %arrayidx77, align 4
  br label %if.end

if.else:                                          ; preds = %lor.lhs.false
  %37 = load i32, ptr %r0, align 4
  %38 = load i32, ptr %r1, align 4
  %add78 = add i32 %37, %38
  %add79 = add i32 %add78, 1
  %shr80 = lshr i32 %add79, 1
  store i32 %shr80, ptr %r, align 4
  %39 = load i32, ptr %g0, align 4
  %40 = load i32, ptr %g1, align 4
  %add81 = add i32 %39, %40
  %add82 = add i32 %add81, 1
  %shr83 = lshr i32 %add82, 1
  store i32 %shr83, ptr %g, align 4
  %41 = load i32, ptr %b0, align 4
  %42 = load i32, ptr %b1, align 4
  %add84 = add i32 %41, %42
  %add85 = add i32 %add84, 1
  %shr86 = lshr i32 %add85, 1
  store i32 %shr86, ptr %b, align 4
  %43 = load i32, ptr %b, align 4
  %shl87 = shl i32 %43, 16
  %or88 = or i32 -16777216, %shl87
  %44 = load i32, ptr %g, align 4
  %shl89 = shl i32 %44, 8
  %or90 = or i32 %or88, %shl89
  %45 = load i32, ptr %r, align 4
  %or91 = or i32 %or90, %45
  %arrayidx92 = getelementptr inbounds [4 x i32], ptr %refColors, i64 0, i64 2
  store i32 %or91, ptr %arrayidx92, align 8
  %arrayidx93 = getelementptr inbounds [4 x i32], ptr %refColors, i64 0, i64 3
  store i32 0, ptr %arrayidx93, align 4
  br label %if.end

if.end:                                           ; preds = %if.else, %if.then
  %46 = load ptr, ptr %compressedBlock.addr, align 8
  %arrayidx94 = getelementptr inbounds i32, ptr %46, i64 1
  %47 = load i32, ptr %arrayidx94, align 4
  store i32 %47, ptr %colorIndices, align 4
  %48 = load ptr, ptr %decompressedBlock.addr, align 8
  store ptr %48, ptr %dstColors, align 8
  store i32 0, ptr %i, align 4
  br label %for.cond

for.cond:                                         ; preds = %for.inc104, %if.end
  %49 = load i32, ptr %i, align 4
  %cmp95 = icmp slt i32 %49, 4
  br i1 %cmp95, label %for.body, label %for.end106

for.body:                                         ; preds = %for.cond
  store i32 0, ptr %j, align 4
  br label %for.cond96

for.cond96:                                       ; preds = %for.inc, %for.body
  %50 = load i32, ptr %j, align 4
  %cmp97 = icmp slt i32 %50, 4
  br i1 %cmp97, label %for.body98, label %for.end

for.body98:                                       ; preds = %for.cond96
  %51 = load i32, ptr %colorIndices, align 4
  %and99 = and i32 %51, 3
  store i32 %and99, ptr %idx, align 4
  %52 = load i32, ptr %idx, align 4
  %idxprom = sext i32 %52 to i64
  %arrayidx100 = getelementptr inbounds [4 x i32], ptr %refColors, i64 0, i64 %idxprom
  %53 = load i32, ptr %arrayidx100, align 4
  %54 = load ptr, ptr %dstColors, align 8
  %55 = load i32, ptr %j, align 4
  %idxprom101 = sext i32 %55 to i64
  %arrayidx102 = getelementptr inbounds i32, ptr %54, i64 %idxprom101
  store i32 %53, ptr %arrayidx102, align 4
  %56 = load i32, ptr %colorIndices, align 4
  %shr103 = lshr i32 %56, 2
  store i32 %shr103, ptr %colorIndices, align 4
  br label %for.inc

for.inc:                                          ; preds = %for.body98
  %57 = load i32, ptr %j, align 4
  %inc = add nsw i32 %57, 1
  store i32 %inc, ptr %j, align 4
  br label %for.cond96, !llvm.loop !4

for.end:                                          ; preds = %for.cond96
  %58 = load i32, ptr %destinationPitch.addr, align 4
  %59 = load ptr, ptr %dstColors, align 8
  %idx.ext = sext i32 %58 to i64
  %add.ptr = getelementptr inbounds i8, ptr %59, i64 %idx.ext
  store ptr %add.ptr, ptr %dstColors, align 8
  br label %for.inc104

for.inc104:                                       ; preds = %for.end
  %60 = load i32, ptr %i, align 4
  %inc105 = add nsw i32 %60, 1
  store i32 %inc105, ptr %i, align 4
  br label %for.cond, !llvm.loop !6

for.end106:                                       ; preds = %for.cond
  ret void
}