; Function Attrs: mustprogress nofree norecurse nosync nounwind memory(write, argmem: readwrite, inaccessiblemem: none) uwtable
define hidden void @_Z18bcdec__color_blockPKvPvii(ptr nocapture noundef readonly %compressedBlock, ptr nocapture noundef writeonly %decompressedBlock, i32 noundef %destinationPitch, i32 noundef %onlyOpaqueMode) local_unnamed_addr #5 {
entry:
  %refColors = alloca [4 x i32], align 16
  %0 = load i16, ptr %compressedBlock, align 2
  %arrayidx1 = getelementptr inbounds i8, ptr %compressedBlock, i64 2
  %1 = load i16, ptr %arrayidx1, align 2
  %conv = zext i16 %0 to i32
  %shr = lshr i32 %conv, 11
  %mul = mul nuw nsw i32 %shr, 527
  %add = add nuw nsw i32 %mul, 23
  %shr2 = lshr i32 %add, 6
  %shr4 = lshr i32 %conv, 5
  %and5 = and i32 %shr4, 63
  %mul6 = mul nuw nsw i32 %and5, 259
  %add7 = add nuw nsw i32 %mul6, 33
  %shr8 = lshr i32 %add7, 6
  %and10 = and i32 %conv, 31
  %mul11 = mul nuw nsw i32 %and10, 527
  %add12 = add nuw nsw i32 %mul11, 23
  %shr13 = lshr i32 %add12, 6
  %shl = shl nuw nsw i32 %shr13, 16
  %shl14 = shl nuw nsw i32 %shr8, 8
  %2 = or i32 %shl, %shl14
  %or15 = or i32 %2, %shr2
  %or16 = or i32 %or15, -16777216
  store i32 %or16, ptr %refColors, align 16
  %conv18 = zext i16 %1 to i32
  %shr19 = lshr i32 %conv18, 11
  %mul21 = mul nuw nsw i32 %shr19, 527
  %add22 = add nuw nsw i32 %mul21, 23
  %shr23 = lshr i32 %add22, 6
  %shr25 = lshr i32 %conv18, 5
  %and26 = and i32 %shr25, 63
  %mul27 = mul nuw nsw i32 %and26, 259
  %add28 = add nuw nsw i32 %mul27, 33
  %shr29 = lshr i32 %add28, 6
  %and31 = and i32 %conv18, 31
  %mul32 = mul nuw nsw i32 %and31, 527
  %add33 = add nuw nsw i32 %mul32, 23
  %shr34 = lshr i32 %add33, 6
  %shl35 = shl nuw nsw i32 %shr34, 16
  %shl37 = shl nuw nsw i32 %shr29, 8
  %3 = or i32 %shl35, %shl37
  %or38 = or i32 %3, %shr23
  %or39 = or i32 %or38, -16777216
  %arrayidx40 = getelementptr inbounds i8, ptr %refColors, i64 4
  store i32 %or39, ptr %arrayidx40, align 4
  %cmp = icmp ugt i16 %0, %1
  %tobool = icmp ne i32 %onlyOpaqueMode, 0
  %or.cond = or i1 %tobool, %cmp
  br i1 %or.cond, label %if.then, label %if.else

if.then:                                          ; preds = %entry
  %mul43 = shl nuw nsw i32 %shr2, 1
  %add44 = add nuw nsw i32 %mul43, %shr23
  %4 = trunc i32 %add44 to i16
  %div.lhs.trunc = add nuw nsw i16 %4, 1
  %div38 = udiv i16 %div.lhs.trunc, 3
  %div.zext = zext nneg i16 %div38 to i32
  %mul46 = shl nuw nsw i32 %shr8, 1
  %add47 = add nuw nsw i32 %mul46, %shr29
  %5 = trunc i32 %add47 to i16
  %div49.lhs.trunc = add nuw nsw i16 %5, 1
  %div4939 = udiv i16 %div49.lhs.trunc, 3
  %div49.zext = zext nneg i16 %div4939 to i32
  %mul50 = shl nuw nsw i32 %shr13, 1
  %add51 = add nuw nsw i32 %mul50, %shr34
  %6 = trunc i32 %add51 to i16
  %div53.lhs.trunc = add nuw nsw i16 %6, 1
  %div5340 = udiv i16 %div53.lhs.trunc, 3
  %div53.zext = zext nneg i16 %div5340 to i32
  %shl54 = shl nuw nsw i32 %div53.zext, 16
  %shl56 = shl nuw nsw i32 %div49.zext, 8
  %or55 = or disjoint i32 %shl54, %div.zext
  %or57 = or i32 %or55, %shl56
  %mul60 = shl nuw nsw i32 %shr23, 1
  %add61 = add nuw nsw i32 %mul60, %shr2
  %7 = trunc i32 %add61 to i16
  %div63.lhs.trunc = add nuw nsw i16 %7, 1
  %div6341 = udiv i16 %div63.lhs.trunc, 3
  %div63.zext = zext nneg i16 %div6341 to i32
  %mul64 = shl nuw nsw i32 %shr29, 1
  %add65 = add nuw nsw i32 %mul64, %shr8
  %8 = trunc i32 %add65 to i16
  %div67.lhs.trunc = add nuw nsw i16 %8, 1
  %div6742 = udiv i16 %div67.lhs.trunc, 3
  %div67.zext = zext nneg i16 %div6742 to i32
  %mul68 = shl nuw nsw i32 %shr34, 1
  %add69 = add nuw nsw i32 %mul68, %shr13
  %9 = trunc i32 %add69 to i16
  %div71.lhs.trunc = add nuw nsw i16 %9, 1
  %div7143 = udiv i16 %div71.lhs.trunc, 3
  %div71.zext = zext nneg i16 %div7143 to i32
  %shl72 = shl nuw nsw i32 %div71.zext, 16
  %shl74 = shl nuw nsw i32 %div67.zext, 8
  %or73 = or disjoint i32 %shl72, %div63.zext
  %or75 = or i32 %or73, %shl74
  %or76 = or i32 %or75, -16777216
  br label %if.end

if.else:                                          ; preds = %entry
  %add78 = add nuw nsw i32 %shr2, 1
  %add79 = add nuw nsw i32 %add78, %shr23
  %shr80 = lshr i32 %add79, 1
  %add81 = add nuw nsw i32 %shr29, %shr8
  %add84 = add nuw nsw i32 %shr34, %shr13
  %add85 = shl nuw nsw i32 %add84, 15
  %10 = add nuw nsw i32 %add85, 32768
  %shl87 = and i32 %10, 16711680
  %add82 = shl nuw nsw i32 %add81, 7
  %11 = add nuw nsw i32 %add82, 128
  %shl89 = and i32 %11, 16776960
  %or88 = or i32 %shr80, %shl87
  %or90 = or i32 %or88, %shl89
  br label %if.end

if.end:                                           ; preds = %if.else, %if.then
  %or91.sink.in = phi i32 [ %or57, %if.then ], [ %or90, %if.else ]
  %.sink = phi i32 [ %or76, %if.then ], [ 0, %if.else ]
  %or91.sink = or i32 %or91.sink.in, -16777216
  %12 = getelementptr inbounds i8, ptr %refColors, i64 8
  store i32 %or91.sink, ptr %12, align 8
  %13 = getelementptr inbounds i8, ptr %refColors, i64 12
  store i32 %.sink, ptr %13, align 4
  %arrayidx94 = getelementptr inbounds i8, ptr %compressedBlock, i64 4
  %14 = load i32, ptr %arrayidx94, align 4
  %idx.ext = sext i32 %destinationPitch to i64
  br label %for.cond96.preheader

for.cond96.preheader:                             ; preds = %if.end, %for.end
  %dstColors.048 = phi ptr [ %decompressedBlock, %if.end ], [ %add.ptr, %for.end ]
  %colorIndices.047 = phi i32 [ %14, %if.end ], [ %shr103, %for.end ]
  %i.046 = phi i32 [ 0, %if.end ], [ %inc105, %for.end ]
  br label %for.body98

for.body98:                                       ; preds = %for.cond96.preheader, %for.body98
  %indvars.iv = phi i64 [ 0, %for.cond96.preheader ], [ %indvars.iv.next, %for.body98 ]
  %colorIndices.145 = phi i32 [ %colorIndices.047, %for.cond96.preheader ], [ %shr103, %for.body98 ]
  %and99 = and i32 %colorIndices.145, 3
  %idxprom = zext nneg i32 %and99 to i64
  %arrayidx100 = getelementptr inbounds [4 x i32], ptr %refColors, i64 0, i64 %idxprom
  %15 = load i32, ptr %arrayidx100, align 4
  %arrayidx102 = getelementptr inbounds i32, ptr %dstColors.048, i64 %indvars.iv
  store i32 %15, ptr %arrayidx102, align 4
  %shr103 = lshr i32 %colorIndices.145, 2
  %indvars.iv.next = add nuw nsw i64 %indvars.iv, 1
  %exitcond.not = icmp eq i64 %indvars.iv.next, 4
  br i1 %exitcond.not, label %for.end, label %for.body98, !llvm.loop !4

for.end:                                          ; preds = %for.body98
  %add.ptr = getelementptr inbounds i8, ptr %dstColors.048, i64 %idx.ext
  %inc105 = add nuw nsw i32 %i.046, 1
  %exitcond50.not = icmp eq i32 %inc105, 4
  br i1 %exitcond50.not, label %for.end106, label %for.cond96.preheader, !llvm.loop !6

for.end106:                                       ; preds = %for.end
  ret void
}